target datalayout = "e-m:e-p270:32:32-p271:32:32-p272:64:64-i64:64-i128:128-f80:128-n8:16:32:64-S128"
target triple = "x86_64-pc-linux-gnu"

%class.symbol = type { ptr }
%class.obj_ref = type { ptr, ptr }
%"class.datalog::tr_infrastructure<datalog::relation_traits>::plugin_object" = type { ptr, i32, %class.symbol, ptr }
%"class.datalog::check_relation_plugin" = type { %"class.datalog::relation_plugin.base", ptr, ptr }
%"class.datalog::relation_plugin.base" = type <{ %"class.datalog::tr_infrastructure<datalog::relation_traits>::plugin_object", i32 }>

@.str.14 = private unnamed_addr constant [5 x i8] c"join\00", align 1

; Function Attrs: mustprogress nounwind uwtable
define linkonce_odr hidden void @_ZN7obj_refI4expr11ast_managerEC2ERS1_(ptr noundef nonnull align 8 dereferenceable(16) %0, ptr noundef nonnull align 8 dereferenceable(976) %1) unnamed_addr #5 comdat align 2 {
  %3 = alloca ptr, align 8
  %4 = alloca ptr, align 8
  store ptr %0, ptr %3, align 8, !tbaa !41
  store ptr %1, ptr %4, align 8, !tbaa !16
  %5 = load ptr, ptr %3, align 8
  %6 = getelementptr inbounds nuw %class.obj_ref, ptr %5, i32 0, i32 0
  store ptr null, ptr %6, align 8, !tbaa !43
  %7 = getelementptr inbounds nuw %class.obj_ref, ptr %5, i32 0, i32 1
  %8 = load ptr, ptr %4, align 8, !tbaa !16
  store ptr %8, ptr %7, align 8, !tbaa !16
  ret void
}

; Function Attrs: mustprogress uwtable
define hidden void @_ZNK7datalog21check_relation_plugin6groundERKNS_13relation_baseE(ptr dead_on_unwind noalias writable sret(%class.obj_ref) align 8 %0, ptr noundef nonnull align 8 dereferenceable(56) %1, ptr noundef nonnull align 8 dereferenceable(28) %2) #4 align 2 personality ptr @__gxx_personality_v0 {
  %4 = alloca ptr, align 8
  %5 = alloca ptr, align 8
  %6 = alloca ptr, align 8
  %7 = alloca %class.obj_ref, align 8
  %8 = alloca ptr, align 8
  %9 = alloca i32, align 4
  store ptr %0, ptr %4, align 8
  store ptr %1, ptr %5, align 8, !tbaa !8
  store ptr %2, ptr %6, align 8, !tbaa !12
  %10 = load ptr, ptr %5, align 8
  call void @llvm.lifetime.start.p0(i64 16, ptr %7) #3
  %11 = getelementptr inbounds nuw %"class.datalog::check_relation_plugin", ptr %10, i32 0, i32 1
  %12 = load ptr, ptr %11, align 8, !tbaa !48
  call void @_ZN7obj_refI4expr11ast_managerEC2ERS1_(ptr noundef nonnull align 8 dereferenceable(16) %7, ptr noundef nonnull align 8 dereferenceable(976) %12)
  %13 = load ptr, ptr %6, align 8, !tbaa !12
  %14 = load ptr, ptr %13, align 8, !tbaa !14
  %15 = getelementptr inbounds ptr, ptr %14, i64 18
  %16 = load ptr, ptr %15, align 8
  invoke void %16(ptr noundef nonnull align 8 dereferenceable(28) %13, ptr noundef nonnull align 8 dereferenceable(16) %7)
          to label %17 unwind label %22

17:                                               ; preds = %3
  %18 = load ptr, ptr %6, align 8, !tbaa !12
  %19 = invoke noundef ptr @_ZNK7obj_refI4expr11ast_managerEcvPS0_Ev(ptr noundef nonnull align 8 dereferenceable(16) %7)
          to label %20 unwind label %22

20:                                               ; preds = %17
  invoke void @_ZNK7datalog21check_relation_plugin6groundERKNS_13relation_baseEP4expr(ptr dead_on_unwind writable sret(%class.obj_ref) align 8 %0, ptr noundef nonnull align 8 dereferenceable(56) %10, ptr noundef nonnull align 8 dereferenceable(28) %18, ptr noundef %19)
          to label %21 unwind label %22

21:                                               ; preds = %20
  call void @_ZN7obj_refI4expr11ast_managerED2Ev(ptr noundef nonnull align 8 dereferenceable(16) %7) #3
  call void @llvm.lifetime.end.p0(i64 16, ptr %7) #3
  ret void

22:                                               ; preds = %20, %17, %3
  %23 = landingpad { ptr, i32 }
          cleanup
  %24 = extractvalue { ptr, i32 } %23, 0
  store ptr %24, ptr %8, align 8
  %25 = extractvalue { ptr, i32 } %23, 1
  store i32 %25, ptr %9, align 4
  call void @_ZN7obj_refI4expr11ast_managerED2Ev(ptr noundef nonnull align 8 dereferenceable(16) %7) #3
  call void @llvm.lifetime.end.p0(i64 16, ptr %7) #3
  br label %26

26:                                               ; preds = %22
  %27 = load ptr, ptr %8, align 8
  %28 = load i32, ptr %9, align 4
  %29 = insertvalue { ptr, i32 } poison, ptr %27, 0
  %30 = insertvalue { ptr, i32 } %29, i32 %28, 1
  resume { ptr, i32 } %30
}

; Function Attrs: mustprogress nounwind uwtable
define linkonce_odr hidden noundef ptr @_ZNK7obj_refI4expr11ast_managerEcvPS0_Ev(ptr noundef nonnull align 8 dereferenceable(16) %0) #5 comdat align 2 {
  %2 = alloca ptr, align 8
  store ptr %0, ptr %2, align 8, !tbaa !41
  %3 = load ptr, ptr %2, align 8
  %4 = getelementptr inbounds nuw %class.obj_ref, ptr %3, i32 0, i32 0
  %5 = load ptr, ptr %4, align 8, !tbaa !43
  ret ptr %5
}

; Function Attrs: mustprogress uwtable
define hidden void @_ZN7datalog21check_relation_plugin11verify_joinERKNS_13relation_baseES3_S3_RK7svectorIjjES7_(ptr noundef nonnull align 8 dereferenceable(56) %0, ptr noundef nonnull align 8 dereferenceable(28) %1, ptr noundef nonnull align 8 dereferenceable(28) %2, ptr noundef nonnull align 8 dereferenceable(28) %3, ptr noundef nonnull align 8 dereferenceable(8) %4, ptr noundef nonnull align 8 dereferenceable(8) %5) #4 align 2 personality ptr @__gxx_personality_v0 {
  %7 = alloca ptr, align 8
  %8 = alloca ptr, align 8
  %9 = alloca ptr, align 8
  %10 = alloca ptr, align 8
  %11 = alloca ptr, align 8
  %12 = alloca ptr, align 8
  %13 = alloca %class.obj_ref, align 8
  %14 = alloca %class.obj_ref, align 8
  %15 = alloca ptr, align 8
  %16 = alloca i32, align 4
  %17 = alloca %class.obj_ref, align 8
  store ptr %0, ptr %7, align 8, !tbaa !8
  store ptr %1, ptr %8, align 8, !tbaa !12
  store ptr %2, ptr %9, align 8, !tbaa !12
  store ptr %3, ptr %10, align 8, !tbaa !12
  store ptr %4, ptr %11, align 8, !tbaa !364
  store ptr %5, ptr %12, align 8, !tbaa !364
  %18 = load ptr, ptr %7, align 8
  call void @llvm.lifetime.start.p0(i64 16, ptr %13) #3
  %19 = load ptr, ptr %10, align 8, !tbaa !12
  call void @llvm.lifetime.start.p0(i64 16, ptr %14) #3
  %20 = load ptr, ptr %8, align 8, !tbaa !12
  %21 = load ptr, ptr %9, align 8, !tbaa !12
  %22 = load ptr, ptr %11, align 8, !tbaa !364
  %23 = load ptr, ptr %12, align 8, !tbaa !364
  call void @_ZN7datalog21check_relation_plugin7mk_joinERKNS_13relation_baseES3_RK7svectorIjjES7_(ptr dead_on_unwind writable sret(%class.obj_ref) align 8 %14, ptr noundef nonnull align 8 dereferenceable(56) %18, ptr noundef nonnull align 8 dereferenceable(28) %20, ptr noundef nonnull align 8 dereferenceable(28) %21, ptr noundef nonnull align 8 dereferenceable(8) %22, ptr noundef nonnull align 8 dereferenceable(8) %23)
  %24 = invoke noundef ptr @_ZNK7obj_refI4expr11ast_managerEcvPS0_Ev(ptr noundef nonnull align 8 dereferenceable(16) %14)
          to label %25 unwind label %34

25:                                               ; preds = %6
  invoke void @_ZNK7datalog21check_relation_plugin6groundERKNS_13relation_baseEP4expr(ptr dead_on_unwind writable sret(%class.obj_ref) align 8 %13, ptr noundef nonnull align 8 dereferenceable(56) %18, ptr noundef nonnull align 8 dereferenceable(28) %19, ptr noundef %24)
          to label %26 unwind label %34

26:                                               ; preds = %25
  call void @_ZN7obj_refI4expr11ast_managerED2Ev(ptr noundef nonnull align 8 dereferenceable(16) %14) #3
  call void @llvm.lifetime.end.p0(i64 16, ptr %14) #3
  call void @llvm.lifetime.start.p0(i64 16, ptr %17) #3
  %27 = load ptr, ptr %10, align 8, !tbaa !12
  invoke void @_ZNK7datalog21check_relation_plugin6groundERKNS_13relation_baseE(ptr dead_on_unwind writable sret(%class.obj_ref) align 8 %17, ptr noundef nonnull align 8 dereferenceable(56) %18, ptr noundef nonnull align 8 dereferenceable(28) %27)
          to label %28 unwind label %38

28:                                               ; preds = %26
  %29 = invoke noundef ptr @_ZNK7obj_refI4expr11ast_managerEcvPS0_Ev(ptr noundef nonnull align 8 dereferenceable(16) %13)
          to label %30 unwind label %42

30:                                               ; preds = %28
  %31 = invoke noundef ptr @_ZNK7obj_refI4expr11ast_managerEcvPS0_Ev(ptr noundef nonnull align 8 dereferenceable(16) %17)
          to label %32 unwind label %42

32:                                               ; preds = %30
  invoke void @_ZN7datalog21check_relation_plugin11check_equivEPKcP4exprS4_(ptr noundef nonnull align 8 dereferenceable(56) %18, ptr noundef @.str.14, ptr noundef %29, ptr noundef %31)
          to label %33 unwind label %42

33:                                               ; preds = %32
  call void @_ZN7obj_refI4expr11ast_managerED2Ev(ptr noundef nonnull align 8 dereferenceable(16) %17) #3
  call void @llvm.lifetime.end.p0(i64 16, ptr %17) #3
  call void @_ZN7obj_refI4expr11ast_managerED2Ev(ptr noundef nonnull align 8 dereferenceable(16) %13) #3
  call void @llvm.lifetime.end.p0(i64 16, ptr %13) #3
  ret void

34:                                               ; preds = %25, %6
  %35 = landingpad { ptr, i32 }
          cleanup
  %36 = extractvalue { ptr, i32 } %35, 0
  store ptr %36, ptr %15, align 8
  %37 = extractvalue { ptr, i32 } %35, 1
  store i32 %37, ptr %16, align 4
  call void @_ZN7obj_refI4expr11ast_managerED2Ev(ptr noundef nonnull align 8 dereferenceable(16) %14) #3
  call void @llvm.lifetime.end.p0(i64 16, ptr %14) #3
  br label %47

38:                                               ; preds = %26
  %39 = landingpad { ptr, i32 }
          cleanup
  %40 = extractvalue { ptr, i32 } %39, 0
  store ptr %40, ptr %15, align 8
  %41 = extractvalue { ptr, i32 } %39, 1
  store i32 %41, ptr %16, align 4
  br label %46

42:                                               ; preds = %32, %30, %28
  %43 = landingpad { ptr, i32 }
          cleanup
  %44 = extractvalue { ptr, i32 } %43, 0
  store ptr %44, ptr %15, align 8
  %45 = extractvalue { ptr, i32 } %43, 1
  store i32 %45, ptr %16, align 4
  call void @_ZN7obj_refI4expr11ast_managerED2Ev(ptr noundef nonnull align 8 dereferenceable(16) %17) #3
  br label %46

46:                                               ; preds = %42, %38
  call void @llvm.lifetime.end.p0(i64 16, ptr %17) #3
  call void @_ZN7obj_refI4expr11ast_managerED2Ev(ptr noundef nonnull align 8 dereferenceable(16) %13) #3
  br label %47

47:                                               ; preds = %46, %34
  call void @llvm.lifetime.end.p0(i64 16, ptr %13) #3
  br label %48

48:                                               ; preds = %47
  %49 = load ptr, ptr %15, align 8
  %50 = load i32, ptr %16, align 4
  %51 = insertvalue { ptr, i32 } poison, ptr %49, 0
  %52 = insertvalue { ptr, i32 } %51, i32 %50, 1
  resume { ptr, i32 } %52
}