; Function Attrs: mustprogress uwtable
define hidden void @_ZN7datalog21check_relation_plugin11verify_joinERKNS_13relation_baseES3_S3_RK7svectorIjjES7_(ptr noundef nonnull readonly align 8 captures(none) dereferenceable(56) %0, ptr noundef nonnull align 8 dereferenceable(28) %1, ptr noundef nonnull align 8 dereferenceable(28) %2, ptr noundef nonnull align 8 dereferenceable(28) %3, ptr noundef nonnull readonly align 8 captures(none) dereferenceable(8) %4, ptr noundef nonnull readonly align 8 captures(none) dereferenceable(8) %5) local_unnamed_addr #3 align 2 personality ptr @__gxx_personality_v0 {
  %7 = alloca %class.obj_ref, align 8
  %8 = alloca %class.obj_ref, align 8
  %9 = alloca %class.obj_ref, align 8
  %10 = alloca %class.obj_ref, align 8
  call void @llvm.lifetime.start.p0(i64 16, ptr nonnull %8) #24
  call void @llvm.lifetime.start.p0(i64 16, ptr nonnull %9) #24
  call void @_ZN7datalog21check_relation_plugin7mk_joinERKNS_13relation_baseES3_RK7svectorIjjES7_(ptr dead_on_unwind nonnull writable sret(%class.obj_ref) align 8 %9, ptr noundef nonnull align 8 dereferenceable(56) %0, ptr noundef nonnull align 8 dereferenceable(28) %1, ptr noundef nonnull align 8 dereferenceable(28) %2, ptr noundef nonnull align 8 dereferenceable(8) %4, ptr noundef nonnull align 8 dereferenceable(8) %5)
  %11 = load ptr, ptr %9, align 8, !tbaa !35
  invoke void @_ZNK7datalog21check_relation_plugin6groundERKNS_13relation_baseEP4expr(ptr dead_on_unwind nonnull writable sret(%class.obj_ref) align 8 %8, ptr noundef nonnull align 8 dereferenceable(56) %0, ptr noundef nonnull align 8 dereferenceable(28) %3, ptr noundef %11)
          to label %12 unwind label %75

12:                                               ; preds = %6
  %13 = load ptr, ptr %9, align 8, !tbaa !35
  %.not.i.i = icmp eq ptr %13, null
  br i1 %.not.i.i, label %_ZN7obj_refI4expr11ast_managerED2Ev.exit, label %14

14:                                               ; preds = %12
  %15 = getelementptr inbounds nuw i8, ptr %9, i64 8
  %16 = load ptr, ptr %15, align 8, !tbaa !36
  %17 = getelementptr inbounds nuw i8, ptr %13, i64 8
  %18 = load i32, ptr %17, align 4, !tbaa !37
  %19 = add i32 %18, -1
  store i32 %19, ptr %17, align 4, !tbaa !37
  %20 = icmp eq i32 %19, 0
  br i1 %20, label %21, label %_ZN7obj_refI4expr11ast_managerED2Ev.exit

21:                                               ; preds = %14
  invoke void @_ZN11ast_manager11delete_nodeEP3ast(ptr noundef nonnull align 8 dereferenceable(976) %16, ptr noundef nonnull %13)
          to label %_ZN7obj_refI4expr11ast_managerED2Ev.exit unwind label %22

22:                                               ; preds = %21
  %23 = landingpad { ptr, i32 }
          catch ptr null
  %24 = extractvalue { ptr, i32 } %23, 0
  call void @__clang_call_terminate(ptr %24) #25
  unreachable

_ZN7obj_refI4expr11ast_managerED2Ev.exit:         ; preds = %12, %14, %21
  call void @llvm.lifetime.end.p0(i64 16, ptr nonnull %9) #24
  call void @llvm.lifetime.start.p0(i64 16, ptr nonnull %10) #24
  call void @llvm.lifetime.start.p0(i64 16, ptr nonnull %7) #24, !noalias !419
  %25 = getelementptr inbounds nuw i8, ptr %0, i64 40
  %26 = load ptr, ptr %25, align 8, !tbaa !43, !noalias !419
  store ptr null, ptr %7, align 8, !tbaa !35, !noalias !419
  %27 = getelementptr inbounds nuw i8, ptr %7, i64 8
  store ptr %26, ptr %27, align 8, !tbaa !27, !noalias !419
  %28 = load ptr, ptr %3, align 8, !tbaa !3, !noalias !419
  %29 = getelementptr inbounds nuw i8, ptr %28, i64 144
  %30 = load ptr, ptr %29, align 8, !noalias !419
  invoke void %30(ptr noundef nonnull align 8 dereferenceable(28) %3, ptr noundef nonnull align 8 dereferenceable(16) %7)
          to label %31 unwind label %45, !noalias !419

31:                                               ; preds = %_ZN7obj_refI4expr11ast_managerED2Ev.exit
  %32 = load ptr, ptr %7, align 8, !tbaa !35, !noalias !419
  invoke void @_ZNK7datalog21check_relation_plugin6groundERKNS_13relation_baseEP4expr(ptr dead_on_unwind nonnull writable sret(%class.obj_ref) align 8 %10, ptr noundef nonnull readonly align 8 dereferenceable(56) %0, ptr noundef nonnull align 8 dereferenceable(28) %3, ptr noundef %32)
          to label %33 unwind label %45

33:                                               ; preds = %31
  %34 = load ptr, ptr %7, align 8, !tbaa !35, !noalias !419
  %.not.i.i.i = icmp eq ptr %34, null
  br i1 %.not.i.i.i, label %47, label %35

35:                                               ; preds = %33
  %36 = load ptr, ptr %27, align 8, !tbaa !36, !noalias !419
  %37 = getelementptr inbounds nuw i8, ptr %34, i64 8
  %38 = load i32, ptr %37, align 4, !tbaa !37
  %39 = add i32 %38, -1
  store i32 %39, ptr %37, align 4, !tbaa !37
  %40 = icmp eq i32 %39, 0
  br i1 %40, label %41, label %47

41:                                               ; preds = %35
  invoke void @_ZN11ast_manager11delete_nodeEP3ast(ptr noundef nonnull align 8 dereferenceable(976) %36, ptr noundef nonnull %34)
          to label %47 unwind label %42

42:                                               ; preds = %41
  %43 = landingpad { ptr, i32 }
          catch ptr null
  %44 = extractvalue { ptr, i32 } %43, 0
  call void @__clang_call_terminate(ptr %44) #25
  unreachable

45:                                               ; preds = %31, %_ZN7obj_refI4expr11ast_managerED2Ev.exit
  %46 = landingpad { ptr, i32 }
          cleanup
  call void @_ZN7obj_refI4expr11ast_managerED2Ev(ptr noundef nonnull align 8 dereferenceable(16) %7) #24
  call void @llvm.lifetime.end.p0(i64 16, ptr nonnull %7) #24, !noalias !419
  br label %.body

47:                                               ; preds = %41, %35, %33
  call void @llvm.lifetime.end.p0(i64 16, ptr nonnull %7) #24, !noalias !419
  %48 = load ptr, ptr %8, align 8, !tbaa !35
  %49 = load ptr, ptr %10, align 8, !tbaa !35
  invoke void @_ZN7datalog21check_relation_plugin11check_equivEPKcP4exprS4_(ptr noundef nonnull align 8 dereferenceable(56) %0, ptr noundef nonnull @.str.14, ptr noundef %48, ptr noundef %49)
          to label %50 unwind label %77

50:                                               ; preds = %47
  %51 = load ptr, ptr %10, align 8, !tbaa !35
  %.not.i.i12 = icmp eq ptr %51, null
  br i1 %.not.i.i12, label %_ZN7obj_refI4expr11ast_managerED2Ev.exit13, label %52

52:                                               ; preds = %50
  %53 = getelementptr inbounds nuw i8, ptr %10, i64 8
  %54 = load ptr, ptr %53, align 8, !tbaa !36
  %55 = getelementptr inbounds nuw i8, ptr %51, i64 8
  %56 = load i32, ptr %55, align 4, !tbaa !37
  %57 = add i32 %56, -1
  store i32 %57, ptr %55, align 4, !tbaa !37
  %58 = icmp eq i32 %57, 0
  br i1 %58, label %59, label %_ZN7obj_refI4expr11ast_managerED2Ev.exit13

59:                                               ; preds = %52
  invoke void @_ZN11ast_manager11delete_nodeEP3ast(ptr noundef nonnull align 8 dereferenceable(976) %54, ptr noundef nonnull %51)
          to label %_ZN7obj_refI4expr11ast_managerED2Ev.exit13 unwind label %60

60:                                               ; preds = %59
  %61 = landingpad { ptr, i32 }
          catch ptr null
  %62 = extractvalue { ptr, i32 } %61, 0
  call void @__clang_call_terminate(ptr %62) #25
  unreachable

_ZN7obj_refI4expr11ast_managerED2Ev.exit13:       ; preds = %50, %52, %59
  call void @llvm.lifetime.end.p0(i64 16, ptr nonnull %10) #24
  %63 = load ptr, ptr %8, align 8, !tbaa !35
  %.not.i.i14 = icmp eq ptr %63, null
  br i1 %.not.i.i14, label %_ZN7obj_refI4expr11ast_managerED2Ev.exit15, label %64

64:                                               ; preds = %_ZN7obj_refI4expr11ast_managerED2Ev.exit13
  %65 = getelementptr inbounds nuw i8, ptr %8, i64 8
  %66 = load ptr, ptr %65, align 8, !tbaa !36
  %67 = getelementptr inbounds nuw i8, ptr %63, i64 8
  %68 = load i32, ptr %67, align 4, !tbaa !37
  %69 = add i32 %68, -1
  store i32 %69, ptr %67, align 4, !tbaa !37
  %70 = icmp eq i32 %69, 0
  br i1 %70, label %71, label %_ZN7obj_refI4expr11ast_managerED2Ev.exit15

71:                                               ; preds = %64
  invoke void @_ZN11ast_manager11delete_nodeEP3ast(ptr noundef nonnull align 8 dereferenceable(976) %66, ptr noundef nonnull %63)
          to label %_ZN7obj_refI4expr11ast_managerED2Ev.exit15 unwind label %72

72:                                               ; preds = %71
  %73 = landingpad { ptr, i32 }
          catch ptr null
  %74 = extractvalue { ptr, i32 } %73, 0
  call void @__clang_call_terminate(ptr %74) #25
  unreachable

_ZN7obj_refI4expr11ast_managerED2Ev.exit15:       ; preds = %_ZN7obj_refI4expr11ast_managerED2Ev.exit13, %64, %71
  call void @llvm.lifetime.end.p0(i64 16, ptr nonnull %8) #24
  ret void

75:                                               ; preds = %6
  %76 = landingpad { ptr, i32 }
          cleanup
  call void @_ZN7obj_refI4expr11ast_managerED2Ev(ptr noundef nonnull align 8 dereferenceable(16) %9) #24
  call void @llvm.lifetime.end.p0(i64 16, ptr nonnull %9) #24
  br label %79

77:                                               ; preds = %47
  %78 = landingpad { ptr, i32 }
          cleanup
  call void @_ZN7obj_refI4expr11ast_managerED2Ev(ptr noundef nonnull align 8 dereferenceable(16) %10) #24
  br label %.body

.body:                                            ; preds = %45, %77
  %.pn = phi { ptr, i32 } [ %78, %77 ], [ %46, %45 ]
  call void @llvm.lifetime.end.p0(i64 16, ptr nonnull %10) #24
  call void @_ZN7obj_refI4expr11ast_managerED2Ev(ptr noundef nonnull align 8 dereferenceable(16) %8) #24
  br label %79

79:                                               ; preds = %.body, %75
  %.pn.pn = phi { ptr, i32 } [ %.pn, %.body ], [ %76, %75 ]
  call void @llvm.lifetime.end.p0(i64 16, ptr nonnull %8) #24
  resume { ptr, i32 } %.pn.pn
}